Certificate:
    Data:
        Version: 3 (0x2)
        Serial Number: 1 (0x1)
    Signature Algorithm: sha256WithRSAEncryption
        Issuer: CN=devcert
        Validity
            Not Before: May  5 03:39:25 2020 GMT
            Not After : Aug  8 03:39:25 2022 GMT
        Subject: CN=localhost
        Subject Public Key Info:
            Public Key Algorithm: rsaEncryption
                Public-Key: (2048 bit)
                Modulus:
                    00:a3:58:cb:a0:04:d5:28:ca:29:5e:d3:65:6e:90:
                    c2:0b:2e:27:4e:32:9e:e7:71:8d:b8:3b:97:e6:b1:
                    99:05:c6:0b:b4:c1:ae:08:c2:7e:26:96:f8:b0:af:
                    4f:99:38:5c:04:89:22:a5:a7:48:92:43:fa:8d:8c:
                    a5:82:69:55:d7:11:ff:aa:3a:c9:ac:7f:7a:fe:49:
                    38:4d:aa:3c:c0:59:3d:ea:71:39:7d:71:38:ce:8a:
                    83:d4:af:24:71:b7:59:f5:bd:ae:bb:3e:28:99:56:
                    0a:65:1c:b7:3d:e2:84:ac:09:0e:e1:34:30:a6:85:
                    9a:f6:32:e9:ca:6a:45:20:63:eb:23:4d:e2:47:65:
                    eb:af:4d:e9:d7:d1:9d:bd:88:f2:6e:d2:b5:f1:0b:
                    34:e3:69:ea:7a:0f:41:72:c5:23:b4:0f:14:6d:69:
                    3b:b0:2b:63:e2:8a:74:39:0c:fd:54:f8:4b:47:c8:
                    e4:58:8d:30:8e:5e:57:9b:62:82:ce:09:63:25:01:
                    7d:02:24:0d:5f:3a:65:e4:4c:a5:d6:14:f1:33:5a:
                    92:c8:70:3c:e8:d9:25:c4:94:1e:c6:6d:29:62:99:
                    bf:53:63:e5:a0:b8:48:a6:ca:ba:ca:4e:17:c2:c8:
                    8e:e7:5b:44:06:07:f7:0c:4b:bc:b2:ba:e8:ba:7e:
                    ef:ab
                Exponent: 65537 (0x10001)
        X509v3 extensions:
            X509v3 Basic Constraints: critical
                CA:FALSE
            X509v3 Subject Key Identifier: 
                4A:77:18:CA:EF:EC:8A:3D:C8:F8:EB:28:E2:09:06:66:18:5C:31:2A
            X509v3 Authority Key Identifier: 
                keyid:DC:49:E9:98:1D:FF:EE:AC:21:45:06:92:91:58:D8:6E:A1:ED:01:B9
                DirName:/CN=devcert
                serial:C2:FE:E3:6D:2B:AE:14:4D

            X509v3 Key Usage: critical
                Digital Signature, Key Encipherment
            X509v3 Extended Key Usage: 
                TLS Web Server Authentication
            X509v3 Subject Alternative Name: 
                DNS:localhost, DNS:*.localhost
    Signature Algorithm: sha256WithRSAEncryption
         5f:49:be:a1:07:f9:c7:cd:0b:71:c0:ad:52:5a:fd:79:27:08:
         bd:cf:52:d9:72:a5:5b:ca:f6:d9:79:df:e1:08:df:ce:64:10:
         35:c6:a9:55:d8:7c:99:6a:97:81:98:90:c4:32:15:e1:1f:c6:
         59:3c:ae:f9:f5:2a:28:e7:6d:a6:4b:92:ab:ea:34:8b:8b:c5:
         29:b0:03:fc:75:98:52:e4:38:13:8c:23:5c:9a:8c:74:01:37:
         59:2e:e9:bb:14:53:43:1a:78:8d:5d:12:bc:82:07:f0:ce:29:
         c9:8d:ce:39:81:02:16:4c:e2:5f:ff:15:8f:b4:c0:77:a8:73:
         be:bd:47:68:7a:b8:ad:b1:85:ee:ea:32:a8:29:fc:44:81:1a:
         6b:1c:36:86:94:f9:ef:7d:96:ff:a7:e9:d6:49:3e:c6:e4:e2:
         2a:52:e8:bf:66:32:c6:af:e4:69:92:c2:94:dd:00:a3:a6:d2:
         5f:74:e4:51:49:f4:2c:4f:d6:25:09:50:4f:2a:cf:14:e8:35:
         25:76:e6:ae:18:f1:9b:46:1b:c7:ce:e5:3a:ce:18:08:ec:fb:
         7e:e8:aa:cb:a8:e6:97:ae:74:93:99:06:8f:42:ac:da:3f:70:
         33:d2:e5:6c:d0:7e:1f:a4:32:7a:fe:ba:10:7a:61:49:be:56:
         3d:b4:38:ef
-----BEGIN CERTIFICATE-----
MIIDXjCCAkagAwIBAgIBATANBgkqhkiG9w0BAQsFADASMRAwDgYDVQQDDAdkZXZj
ZXJ0MB4XDTIwMDUwNTAzMzkyNVoXDTIyMDgwODAzMzkyNVowFDESMBAGA1UEAwwJ
bG9jYWxob3N0MIIBIjANBgkqhkiG9w0BAQEFAAOCAQ8AMIIBCgKCAQEAo1jLoATV
KMopXtNlbpDCCy4nTjKe53GNuDuX5rGZBcYLtMGuCMJ+Jpb4sK9PmThcBIkipadI
kkP6jYylgmlV1xH/qjrJrH96/kk4Tao8wFk96nE5fXE4zoqD1K8kcbdZ9b2uuz4o
mVYKZRy3PeKErAkO4TQwpoWa9jLpympFIGPrI03iR2Xrr03p19GdvYjybtK18Qs0
42nqeg9BcsUjtA8UbWk7sCtj4op0OQz9VPhLR8jkWI0wjl5Xm2KCzgljJQF9AiQN
Xzpl5Eyl1hTxM1qSyHA86NklxJQexm0pYpm/U2PloLhIpsq6yk4XwsiO51tEBgf3
DEu8srroun7vqwIDAQABo4G8MIG5MAwGA1UdEwEB/wQCMAAwHQYDVR0OBBYEFEp3
GMrv7Io9yPjrKOIJBmYYXDEqMEIGA1UdIwQ7MDmAFNxJ6Zgd/+6sIUUGkpFY2G6h
7QG5oRakFDASMRAwDgYDVQQDDAdkZXZjZXJ0ggkAwv7jbSuuFE0wDgYDVR0PAQH/
BAQDAgWgMBMGA1UdJQQMMAoGCCsGAQUFBwMBMCEGA1UdEQQaMBiCCWxvY2FsaG9z
dIILKi5sb2NhbGhvc3QwDQYJKoZIhvcNAQELBQADggEBAF9JvqEH+cfNC3HArVJa
/XknCL3PUtlypVvK9tl53+EI385kEDXGqVXYfJlql4GYkMQyFeEfxlk8rvn1Kijn
baZLkqvqNIuLxSmwA/x1mFLkOBOMI1yajHQBN1ku6bsUU0MaeI1dEryCB/DOKcmN
zjmBAhZM4l//FY+0wHeoc769R2h6uK2xhe7qMqgp/ESBGmscNoaU+e99lv+n6dZJ
Psbk4ipS6L9mMsav5GmSwpTdAKOm0l905FFJ9CxP1iUJUE8qzxToNSV25q4Y8ZtG
G8fO5TrOGAjs+37oqsuo5peudJOZBo9CrNo/cDPS5WzQfh+kMnr+uhB6YUm+Vj20
OO8=
-----END CERTIFICATE-----
